; Function Attrs: nounwind uwtable
define dso_local void @_PyErr_FormatNote(ptr noundef %0, ...) local_unnamed_addr #0 {
  %2 = alloca [1 x %struct.__va_list_tag], align 16
  %3 = tail call align 8 ptr @llvm.threadlocal.address.p0(ptr align 8 @_Py_tss_tstate)
  %4 = load ptr, ptr %3, align 8, !tbaa !25
  %5 = getelementptr inbounds nuw i8, ptr %4, i64 112
  %6 = load ptr, ptr %5, align 8, !tbaa !4
  store ptr null, ptr %5, align 8, !tbaa !4
  %7 = icmp eq ptr %6, null
  br i1 %7, label %48, label %8

8:                                                ; preds = %1
  call void @llvm.lifetime.start.p0(i64 24, ptr nonnull %2) #17
  call void @llvm.va_start.p0(ptr nonnull %2)
  %9 = call ptr @PyUnicode_FromFormatV(ptr noundef %0, ptr noundef nonnull %2) #17
  call void @llvm.va_end.p0(ptr nonnull %2)
  %10 = icmp eq ptr %9, null
  br i1 %10, label %29, label %11

11:                                               ; preds = %8
  %12 = call i32 @_PyException_AddNote(ptr noundef nonnull %6, ptr noundef nonnull %9) #17
  %13 = load i32, ptr %9, align 8, !tbaa !20
  %.not.i = icmp sgt i32 %13, -1
  br i1 %.not.i, label %14, label %Py_DECREF.exit

14:                                               ; preds = %11
  %15 = add nsw i32 %13, -1
  store i32 %15, ptr %9, align 8, !tbaa !20
  %16 = icmp eq i32 %15, 0
  br i1 %16, label %17, label %Py_DECREF.exit

17:                                               ; preds = %14
  call void @_Py_Dealloc(ptr noundef nonnull %9) #17
  br label %Py_DECREF.exit

Py_DECREF.exit:                                   ; preds = %11, %14, %17
  %18 = icmp slt i32 %12, 0
  br i1 %18, label %29, label %19

19:                                               ; preds = %Py_DECREF.exit
  %20 = load ptr, ptr %3, align 8, !tbaa !25
  %21 = getelementptr inbounds nuw i8, ptr %20, i64 112
  %22 = load ptr, ptr %21, align 8, !tbaa !4
  store ptr %6, ptr %21, align 8, !tbaa !4
  %.not.i.i.i = icmp eq ptr %22, null
  br i1 %.not.i.i.i, label %PyErr_SetRaisedException.exit, label %23

23:                                               ; preds = %19
  %24 = load i32, ptr %22, align 8, !tbaa !20
  %.not.i.i.i.i = icmp sgt i32 %24, -1
  br i1 %.not.i.i.i.i, label %25, label %PyErr_SetRaisedException.exit

25:                                               ; preds = %23
  %26 = add nsw i32 %24, -1
  store i32 %26, ptr %22, align 8, !tbaa !20
  %27 = icmp eq i32 %26, 0
  br i1 %27, label %28, label %PyErr_SetRaisedException.exit

28:                                               ; preds = %25
  call void @_Py_Dealloc(ptr noundef nonnull %22) #17
  br label %PyErr_SetRaisedException.exit

29:                                               ; preds = %8, %Py_DECREF.exit
  %30 = load ptr, ptr %3, align 8, !tbaa !25
  %31 = getelementptr i8, ptr %30, i64 112
  %.val.i = load ptr, ptr %31, align 8, !tbaa !4
  %32 = icmp eq ptr %.val.i, null
  br i1 %32, label %.thread.i, label %_PyErr_Occurred.exit.i

.thread.i:                                        ; preds = %29
  store ptr %6, ptr %31, align 8, !tbaa !4
  br label %PyErr_SetRaisedException.exit

_PyErr_Occurred.exit.i:                           ; preds = %29
  %33 = getelementptr i8, ptr %.val.i, i64 8
  %.val.i.i = load ptr, ptr %33, align 8, !tbaa !21
  %.not.i9 = icmp eq ptr %.val.i.i, null
  br i1 %.not.i9, label %42, label %34

34:                                               ; preds = %_PyErr_Occurred.exit.i
  store ptr null, ptr %31, align 8, !tbaa !4
  call void @PyException_SetContext(ptr noundef nonnull %.val.i, ptr noundef nonnull %6) #17
  %35 = load ptr, ptr %31, align 8, !tbaa !4
  store ptr %.val.i, ptr %31, align 8, !tbaa !4
  %.not.i.i.i10 = icmp eq ptr %35, null
  br i1 %.not.i.i.i10, label %PyErr_SetRaisedException.exit, label %36

36:                                               ; preds = %34
  %37 = load i32, ptr %35, align 8, !tbaa !20
  %.not.i.i.i.i11 = icmp sgt i32 %37, -1
  br i1 %.not.i.i.i.i11, label %38, label %PyErr_SetRaisedException.exit

38:                                               ; preds = %36
  %39 = add nsw i32 %37, -1
  store i32 %39, ptr %35, align 8, !tbaa !20
  %40 = icmp eq i32 %39, 0
  br i1 %40, label %41, label %PyErr_SetRaisedException.exit

41:                                               ; preds = %38
  call void @_Py_Dealloc(ptr noundef nonnull %35) #17
  br label %PyErr_SetRaisedException.exit

42:                                               ; preds = %_PyErr_Occurred.exit.i
  store ptr %6, ptr %31, align 8, !tbaa !4
  %43 = load i32, ptr %.val.i, align 8, !tbaa !20
  %.not.i.i.i10.i = icmp sgt i32 %43, -1
  br i1 %.not.i.i.i10.i, label %44, label %PyErr_SetRaisedException.exit

44:                                               ; preds = %42
  %45 = add nsw i32 %43, -1
  store i32 %45, ptr %.val.i, align 8, !tbaa !20
  %46 = icmp eq i32 %45, 0
  br i1 %46, label %47, label %PyErr_SetRaisedException.exit

47:                                               ; preds = %44
  call void @_Py_Dealloc(ptr noundef nonnull %.val.i) #17
  br label %PyErr_SetRaisedException.exit

PyErr_SetRaisedException.exit:                    ; preds = %47, %44, %42, %41, %38, %36, %34, %.thread.i, %28, %25, %23, %19
  call void @llvm.lifetime.end.p0(i64 24, ptr nonnull %2) #17
  br label %48

48:                                               ; preds = %1, %PyErr_SetRaisedException.exit
  ret void
}